target datalayout = "e-m:e-p270:32:32-p271:32:32-p272:64:64-i64:64-i128:128-f80:128-n8:16:32:64-S128"
target triple = "x86_64-pc-linux-gnu"

%struct._zend_refcounted_h = type { i32, %union.anon }
%union.anon = type { i32 }
%struct._zend_string = type { %struct._zend_refcounted_h, i64, i64, [1 x i8] }

@.str.12 = private unnamed_addr constant [50 x i8] c"Cannot access offset of type %s in isset or empty\00", align 1
@zend_known_strings = external global ptr, align 8
@.str.13 = private unnamed_addr constant [28 x i8] c"Cannot unset string offsets\00", align 1
@.str.14 = private unnamed_addr constant [37 x i8] c"Cannot unset offset of type %s on %s\00", align 1
@.str.15 = private unnamed_addr constant [38 x i8] c"Cannot access offset of type %s on %s\00", align 1

; Function Attrs: nounwind uwtable
define void @zend_illegal_container_offset(ptr noundef %0, ptr noundef %1, i32 noundef %2) #0 {
  %4 = alloca ptr, align 8
  %5 = alloca ptr, align 8
  %6 = alloca ptr, align 8
  %7 = alloca ptr, align 8
  %8 = alloca ptr, align 8
  %9 = alloca ptr, align 8
  %10 = alloca i32, align 4
  store ptr %0, ptr %8, align 8
  store ptr %1, ptr %9, align 8
  store i32 %2, ptr %10, align 4
  %11 = load i32, ptr %10, align 4
  switch i32 %11, label %49 [
    i32 3, label %12
    i32 5, label %15
  ]

12:                                               ; preds = %3
  %13 = load ptr, ptr %9, align 8
  %14 = call ptr @zend_zval_type_name(ptr noundef %13)
  call void (ptr, ...) @zend_type_error(ptr noundef @.str.12, ptr noundef %14)
  br label %55

15:                                               ; preds = %3
  %16 = load ptr, ptr %8, align 8
  %17 = load ptr, ptr @zend_known_strings, align 8
  %18 = getelementptr inbounds ptr, ptr %17, i64 27
  %19 = load ptr, ptr %18, align 8
  store ptr %16, ptr %6, align 8
  store ptr %19, ptr %7, align 8
  %20 = load ptr, ptr %6, align 8
  %21 = load ptr, ptr %7, align 8
  %22 = icmp eq ptr %20, %21
  br i1 %22, label %39, label %23

23:                                               ; preds = %15
  %24 = load ptr, ptr %6, align 8
  %25 = load ptr, ptr %7, align 8
  store ptr %24, ptr %4, align 8
  store ptr %25, ptr %5, align 8
  %26 = load ptr, ptr %4, align 8
  %27 = getelementptr inbounds %struct._zend_string, ptr %26, i32 0, i32 2
  %28 = load i64, ptr %27, align 8
  %29 = load ptr, ptr %5, align 8
  %30 = getelementptr inbounds %struct._zend_string, ptr %29, i32 0, i32 2
  %31 = load i64, ptr %30, align 8
  %32 = icmp eq i64 %28, %31
  br i1 %32, label %33, label %37

33:                                               ; preds = %23
  %34 = load ptr, ptr %4, align 8
  %35 = load ptr, ptr %5, align 8
  %36 = call zeroext i1 @zend_string_equal_val(ptr noundef %34, ptr noundef %35) #18
  br label %37

37:                                               ; preds = %33, %23
  %38 = phi i1 [ false, %23 ], [ %36, %33 ]
  br label %39

39:                                               ; preds = %37, %15
  %40 = phi i1 [ true, %15 ], [ %38, %37 ]
  br i1 %40, label %41, label %42

41:                                               ; preds = %39
  call void (ptr, ptr, ...) @zend_throw_error(ptr noundef null, ptr noundef @.str.13)
  br label %48

42:                                               ; preds = %39
  %43 = load ptr, ptr %9, align 8
  %44 = call ptr @zend_zval_type_name(ptr noundef %43)
  %45 = load ptr, ptr %8, align 8
  %46 = getelementptr inbounds %struct._zend_string, ptr %45, i32 0, i32 3
  %47 = getelementptr inbounds [1 x i8], ptr %46, i64 0, i64 0
  call void (ptr, ...) @zend_type_error(ptr noundef @.str.14, ptr noundef %44, ptr noundef %47)
  br label %48

48:                                               ; preds = %42, %41
  br label %55

49:                                               ; preds = %3
  %50 = load ptr, ptr %9, align 8
  %51 = call ptr @zend_zval_type_name(ptr noundef %50)
  %52 = load ptr, ptr %8, align 8
  %53 = getelementptr inbounds %struct._zend_string, ptr %52, i32 0, i32 3
  %54 = getelementptr inbounds [1 x i8], ptr %53, i64 0, i64 0
  call void (ptr, ...) @zend_type_error(ptr noundef @.str.15, ptr noundef %51, ptr noundef %54)
  br label %55

55:                                               ; preds = %49, %48, %12
  ret void
}