; Function Attrs: nounwind uwtable
define void @zend_illegal_container_offset(ptr noundef %0, ptr noundef %1, i32 noundef %2) local_unnamed_addr #0 {
  switch i32 %2, label %21 [
    i32 3, label %4
    i32 5, label %6
  ]

4:                                                ; preds = %3
  %5 = tail call ptr @zend_zval_type_name(ptr noundef %1) #30
  tail call void (ptr, ...) @zend_type_error(ptr noundef nonnull @.str.12, ptr noundef %5)
  br label %24

6:                                                ; preds = %3
  %7 = load ptr, ptr @zend_known_strings, align 8
  %8 = getelementptr inbounds i8, ptr %7, i64 216
  %9 = load ptr, ptr %8, align 8
  %10 = icmp eq ptr %9, %0
  br i1 %10, label %.critedge, label %11

11:                                               ; preds = %6
  %12 = getelementptr inbounds i8, ptr %0, i64 16
  %13 = load i64, ptr %12, align 8
  %14 = getelementptr inbounds i8, ptr %9, i64 16
  %15 = load i64, ptr %14, align 8
  %16 = icmp eq i64 %13, %15
  br i1 %16, label %17, label %.critedge2

17:                                               ; preds = %11
  %18 = tail call zeroext i1 @zend_string_equal_val(ptr noundef nonnull %0, ptr noundef nonnull %9) #30
  br i1 %18, label %.critedge, label %.critedge2

.critedge:                                        ; preds = %6, %17
  tail call void (ptr, ptr, ...) @zend_throw_error(ptr noundef null, ptr noundef nonnull @.str.13)
  br label %24

.critedge2:                                       ; preds = %11, %17
  %19 = tail call ptr @zend_zval_type_name(ptr noundef %1) #30
  %20 = getelementptr inbounds i8, ptr %0, i64 24
  tail call void (ptr, ...) @zend_type_error(ptr noundef nonnull @.str.14, ptr noundef %19, ptr noundef nonnull %20)
  br label %24

21:                                               ; preds = %3
  %22 = tail call ptr @zend_zval_type_name(ptr noundef %1) #30
  %23 = getelementptr inbounds i8, ptr %0, i64 24
  tail call void (ptr, ...) @zend_type_error(ptr noundef nonnull @.str.15, ptr noundef %22, ptr noundef nonnull %23)
  br label %24

24:                                               ; preds = %.critedge, %.critedge2, %21, %4
  ret void
}